(lp0
(S'bags'
p1
S'shoes'
p2
tp3
a(g1
S'jewellery'
p4
tp5
a(g1
S'tops'
p6
tp7
a(g1
S'bottoms'
p8
tp9
a(g2
g4
tp10
a(g2
g6
tp11
a(g2
g8
tp12
a(g4
g6
tp13
a(g4
g8
tp14
a(g6
g8
tp15
a(S'bags'
p16
S'all-body'
p17
tp18
a(g16
S'outerwear'
p19
tp20
a(S'shoes'
p21
g17
tp22
a(g21
g19
tp23
a(g17
g19
tp24
a(S'bags'
p25
S'sunglasses'
p26
tp27
a(S'shoes'
p28
g26
tp29
a(g6
g26
tp30
a(g6
g19
tp31
a(g26
S'bottoms'
p32
tp33
a(g26
g19
tp34
a(g32
g19
tp35
a(S'jewellery'
p36
S'jewellery'
p37
tp38
a(g36
S'all-body'
p39
tp40
a(S'tops'
p41
g6
tp42
a(S'bags'
p43
S'hats'
p44
tp45
a(g43
S'scarves'
p46
tp47
a(S'shoes'
p48
g44
tp49
a(g48
g46
tp50
a(g44
S'tops'
p51
tp52
a(g44
S'bottoms'
p53
tp54
a(g44
g46
tp55
a(g51
g46
tp56
a(g53
g46
tp57
a(S'shoes'
p58
S'accessories'
p59
tp60
a(S'jewellery'
p61
g59
tp62
a(g61
g46
tp63
a(S'tops'
p64
g59
tp65
a(g59
S'bottoms'
p66
tp67
a(g59
g46
tp68
a(g37
S'outerwear'
p69
tp70
a(g43
g25
tp71
a(g25
g59
tp72
a(S'jewellery'
p73
g26
tp74
a(g26
g17
tp75
a(g44
g26
tp76
a(S'accessories'
p77
g59
tp78
a(g26
S'accessories'
p79
tp80
a(S'accessories'
p81
g19
tp82
a(g44
S'all-body'
p83
tp84
a(g41
g83
tp85
a(g83
g32
tp86
a(g44
S'accessories'
p87
tp88
a(g44
S'outerwear'
p89
tp90
a(S'scarves'
p91
g89
tp92
a(g59
g17
tp93
a(g36
g44
tp94
a(g17
g46
tp95
a(S'all-body'
p96
g17
tp97
a(g26
g91
tp98
a(S'bottoms'
p99
S'bottoms'
p100
tp101
a(S'shoes'
p102
S'shoes'
p103
tp104
a(g19
g69
tp105
a(g46
g91
tp106
a(g44
S'hats'
p107
tp108
a(S'sunglasses'
p109
g26
tp110
a.